target datalayout = "e-m:e-p270:32:32-p271:32:32-p272:64:64-i64:64-i128:128-f80:128-n8:16:32:64-S128"
target triple = "x86_64-unknown-linux-gnu"

%struct.asn1_string_st = type { i32, i32, ptr, i64 }

@.str = private unnamed_addr constant [126 x i8] c"generated/home/dtcxzyw/WorkSpace/Projects/compilers/llvm-opt-benchmark/bench/libquic/libquic/boringssl/crypto/asn1/asn1_lib.c\00", align 1

; Function Attrs: nounwind uwtable
define hidden ptr @ASN1_STRING_type_new(i32 noundef %type) #0 {
entry:
  %retval = alloca ptr, align 8
  %type.addr = alloca i32, align 4
  %ret = alloca ptr, align 8
  store i32 %type, ptr %type.addr, align 4
  %call = call noalias ptr @malloc(i64 noundef 24) #8
  store ptr %call, ptr %ret, align 8
  %0 = load ptr, ptr %ret, align 8
  %cmp = icmp eq ptr %0, null
  br i1 %cmp, label %if.then, label %if.end

if.then:                                          ; preds = %entry
  call void @ERR_put_error(i32 noundef 12, i32 noundef 0, i32 noundef 65, ptr noundef @.str, i32 noundef 452)
  store ptr null, ptr %retval, align 8
  br label %return

if.end:                                           ; preds = %entry
  %1 = load ptr, ptr %ret, align 8
  %length = getelementptr inbounds %struct.asn1_string_st, ptr %1, i32 0, i32 0
  store i32 0, ptr %length, align 8
  %2 = load i32, ptr %type.addr, align 4
  %3 = load ptr, ptr %ret, align 8
  %type1 = getelementptr inbounds %struct.asn1_string_st, ptr %3, i32 0, i32 1
  store i32 %2, ptr %type1, align 4
  %4 = load ptr, ptr %ret, align 8
  %data = getelementptr inbounds %struct.asn1_string_st, ptr %4, i32 0, i32 2
  store ptr null, ptr %data, align 8
  %5 = load ptr, ptr %ret, align 8
  %flags = getelementptr inbounds %struct.asn1_string_st, ptr %5, i32 0, i32 3
  store i64 0, ptr %flags, align 8
  %6 = load ptr, ptr %ret, align 8
  store ptr %6, ptr %retval, align 8
  br label %return

return:                                           ; preds = %if.end, %if.then
  %7 = load ptr, ptr %retval, align 8
  ret ptr %7
}

; Function Attrs: nounwind uwtable
define hidden void @ASN1_STRING_free(ptr noundef %a) #0 {
entry:
  %a.addr = alloca ptr, align 8
  store ptr %a, ptr %a.addr, align 8
  %0 = load ptr, ptr %a.addr, align 8
  %cmp = icmp eq ptr %0, null
  br i1 %cmp, label %if.then, label %if.end

if.then:                                          ; preds = %entry
  br label %return

if.end:                                           ; preds = %entry
  %1 = load ptr, ptr %a.addr, align 8
  %data = getelementptr inbounds %struct.asn1_string_st, ptr %1, i32 0, i32 2
  %2 = load ptr, ptr %data, align 8
  %tobool = icmp ne ptr %2, null
  br i1 %tobool, label %land.lhs.true, label %if.end4

land.lhs.true:                                    ; preds = %if.end
  %3 = load ptr, ptr %a.addr, align 8
  %flags = getelementptr inbounds %struct.asn1_string_st, ptr %3, i32 0, i32 3
  %4 = load i64, ptr %flags, align 8
  %and = and i64 %4, 16
  %tobool1 = icmp ne i64 %and, 0
  br i1 %tobool1, label %if.end4, label %if.then2

if.then2:                                         ; preds = %land.lhs.true
  %5 = load ptr, ptr %a.addr, align 8
  %data3 = getelementptr inbounds %struct.asn1_string_st, ptr %5, i32 0, i32 2
  %6 = load ptr, ptr %data3, align 8
  call void @free(ptr noundef %6) #10
  br label %if.end4

if.end4:                                          ; preds = %if.then2, %land.lhs.true, %if.end
  %7 = load ptr, ptr %a.addr, align 8
  call void @free(ptr noundef %7) #10
  br label %return

return:                                           ; preds = %if.end4, %if.then
  ret void
}

; Function Attrs: nounwind uwtable
define hidden i32 @ASN1_STRING_copy(ptr noundef %dst, ptr noundef %str) #0 {
entry:
  %retval = alloca i32, align 4
  %dst.addr = alloca ptr, align 8
  %str.addr = alloca ptr, align 8
  store ptr %dst, ptr %dst.addr, align 8
  store ptr %str, ptr %str.addr, align 8
  %0 = load ptr, ptr %str.addr, align 8
  %cmp = icmp eq ptr %0, null
  br i1 %cmp, label %if.then, label %if.end

if.then:                                          ; preds = %entry
  store i32 0, ptr %retval, align 4
  br label %return

if.end:                                           ; preds = %entry
  %1 = load ptr, ptr %str.addr, align 8
  %type = getelementptr inbounds %struct.asn1_string_st, ptr %1, i32 0, i32 1
  %2 = load i32, ptr %type, align 4
  %3 = load ptr, ptr %dst.addr, align 8
  %type1 = getelementptr inbounds %struct.asn1_string_st, ptr %3, i32 0, i32 1
  store i32 %2, ptr %type1, align 4
  %4 = load ptr, ptr %dst.addr, align 8
  %5 = load ptr, ptr %str.addr, align 8
  %data = getelementptr inbounds %struct.asn1_string_st, ptr %5, i32 0, i32 2
  %6 = load ptr, ptr %data, align 8
  %7 = load ptr, ptr %str.addr, align 8
  %length = getelementptr inbounds %struct.asn1_string_st, ptr %7, i32 0, i32 0
  %8 = load i32, ptr %length, align 8
  %call = call i32 @ASN1_STRING_set(ptr noundef %4, ptr noundef %6, i32 noundef %8)
  %tobool = icmp ne i32 %call, 0
  br i1 %tobool, label %if.end3, label %if.then2

if.then2:                                         ; preds = %if.end
  store i32 0, ptr %retval, align 4
  br label %return

if.end3:                                          ; preds = %if.end
  %9 = load ptr, ptr %str.addr, align 8
  %flags = getelementptr inbounds %struct.asn1_string_st, ptr %9, i32 0, i32 3
  %10 = load i64, ptr %flags, align 8
  %11 = load ptr, ptr %dst.addr, align 8
  %flags4 = getelementptr inbounds %struct.asn1_string_st, ptr %11, i32 0, i32 3
  store i64 %10, ptr %flags4, align 8
  store i32 1, ptr %retval, align 4
  br label %return

return:                                           ; preds = %if.end3, %if.then2, %if.then
  %12 = load i32, ptr %retval, align 4
  ret i32 %12
}

; Function Attrs: nounwind uwtable
define hidden ptr @ASN1_STRING_new() #0 {
entry:
  %call = call ptr @ASN1_STRING_type_new(i32 noundef 4)
  ret ptr %call
}

; Function Attrs: nounwind uwtable
define hidden ptr @ASN1_STRING_dup(ptr noundef %str) #0 {
entry:
  %retval = alloca ptr, align 8
  %str.addr = alloca ptr, align 8
  %ret = alloca ptr, align 8
  store ptr %str, ptr %str.addr, align 8
  %0 = load ptr, ptr %str.addr, align 8
  %tobool = icmp ne ptr %0, null
  br i1 %tobool, label %if.end, label %if.then

if.then:                                          ; preds = %entry
  store ptr null, ptr %retval, align 8
  br label %return

if.end:                                           ; preds = %entry
  %call = call ptr @ASN1_STRING_new()
  store ptr %call, ptr %ret, align 8
  %1 = load ptr, ptr %ret, align 8
  %tobool1 = icmp ne ptr %1, null
  br i1 %tobool1, label %if.end3, label %if.then2

if.then2:                                         ; preds = %if.end
  store ptr null, ptr %retval, align 8
  br label %return

if.end3:                                          ; preds = %if.end
  %2 = load ptr, ptr %ret, align 8
  %3 = load ptr, ptr %str.addr, align 8
  %call4 = call i32 @ASN1_STRING_copy(ptr noundef %2, ptr noundef %3)
  %tobool5 = icmp ne i32 %call4, 0
  br i1 %tobool5, label %if.end7, label %if.then6

if.then6:                                         ; preds = %if.end3
  %4 = load ptr, ptr %ret, align 8
  call void @ASN1_STRING_free(ptr noundef %4)
  store ptr null, ptr %retval, align 8
  br label %return

if.end7:                                          ; preds = %if.end3
  %5 = load ptr, ptr %ret, align 8
  store ptr %5, ptr %retval, align 8
  br label %return

return:                                           ; preds = %if.end7, %if.then6, %if.then2, %if.then
  %6 = load ptr, ptr %retval, align 8
  ret ptr %6
}