; Function Attrs: nounwind uwtable
define hidden noalias noundef ptr @ASN1_STRING_dup(ptr noundef readonly %str) local_unnamed_addr #1 {
entry:
  %tobool.not = icmp eq ptr %str, null
  br i1 %tobool.not, label %return, label %if.end

if.end:                                           ; preds = %entry
  %call.i.i = tail call noalias dereferenceable_or_null(24) ptr @malloc(i64 noundef 24) #18
  %cmp.i.i = icmp eq ptr %call.i.i, null
  br i1 %cmp.i.i, label %ASN1_STRING_new.exit.thread, label %if.end.i

ASN1_STRING_new.exit.thread:                      ; preds = %if.end
  tail call void @ERR_put_error(i32 noundef 12, i32 noundef 0, i32 noundef 65, ptr noundef nonnull @.str, i32 noundef 452) #16
  br label %return

if.end.i:                                         ; preds = %if.end
  store i32 0, ptr %call.i.i, align 8
  %type1.i.i = getelementptr inbounds nuw i8, ptr %call.i.i, i64 4
  %data.i.i = getelementptr inbounds nuw i8, ptr %call.i.i, i64 8
  tail call void @llvm.memset.p0.i64(ptr noundef nonnull align 8 dereferenceable(16) %data.i.i, i8 0, i64 16, i1 false)
  %type.i = getelementptr inbounds nuw i8, ptr %str, i64 4
  %0 = load i32, ptr %type.i, align 4
  store i32 %0, ptr %type1.i.i, align 4
  %data.i = getelementptr inbounds nuw i8, ptr %str, i64 8
  %1 = load ptr, ptr %data.i, align 8
  %2 = load i32, ptr %str, align 8
  %call.i = tail call i32 @ASN1_STRING_set(ptr noundef nonnull %call.i.i, ptr noundef %1, i32 noundef %2)
  %tobool.not.i = icmp eq i32 %call.i, 0
  br i1 %tobool.not.i, label %if.end.i6, label %ASN1_STRING_copy.exit

ASN1_STRING_copy.exit:                            ; preds = %if.end.i
  %flags.i = getelementptr inbounds nuw i8, ptr %str, i64 16
  %3 = load i64, ptr %flags.i, align 8
  %flags4.i = getelementptr inbounds nuw i8, ptr %call.i.i, i64 16
  store i64 %3, ptr %flags4.i, align 8
  br label %return

if.end.i6:                                        ; preds = %if.end.i
  %4 = load ptr, ptr %data.i.i, align 8
  %tobool.not.i8 = icmp eq ptr %4, null
  br i1 %tobool.not.i8, label %ASN1_STRING_free.exit, label %land.lhs.true.i

land.lhs.true.i:                                  ; preds = %if.end.i6
  %flags.i9 = getelementptr inbounds nuw i8, ptr %call.i.i, i64 16
  %5 = load i64, ptr %flags.i9, align 8
  %and.i = and i64 %5, 16
  %tobool1.not.i = icmp eq i64 %and.i, 0
  br i1 %tobool1.not.i, label %if.then2.i, label %ASN1_STRING_free.exit

if.then2.i:                                       ; preds = %land.lhs.true.i
  tail call void @free(ptr noundef nonnull %4) #16
  br label %ASN1_STRING_free.exit

ASN1_STRING_free.exit:                            ; preds = %if.end.i6, %land.lhs.true.i, %if.then2.i
  tail call void @free(ptr noundef nonnull %call.i.i) #16
  br label %return

return:                                           ; preds = %ASN1_STRING_copy.exit, %ASN1_STRING_new.exit.thread, %entry, %ASN1_STRING_free.exit
  %retval.0 = phi ptr [ null, %ASN1_STRING_free.exit ], [ null, %entry ], [ %call.i.i, %ASN1_STRING_copy.exit ], [ null, %ASN1_STRING_new.exit.thread ]
  ret ptr %retval.0
}